
lists.x:     file format elf64-x86-64


Disassembly of section .init:

0000000000001000 <_init>:
    1000:	f3 0f 1e fa          	endbr64 
    1004:	48 83 ec 08          	sub    rsp,0x8
    1008:	48 8b 05 d9 2f 00 00 	mov    rax,QWORD PTR [rip+0x2fd9]        # 3fe8 <__gmon_start__>
    100f:	48 85 c0             	test   rax,rax
    1012:	74 02                	je     1016 <_init+0x16>
    1014:	ff d0                	call   rax
    1016:	48 83 c4 08          	add    rsp,0x8
    101a:	c3                   	ret    

Disassembly of section .plt:

0000000000001020 <.plt>:
    1020:	ff 35 62 2f 00 00    	push   QWORD PTR [rip+0x2f62]        # 3f88 <_GLOBAL_OFFSET_TABLE_+0x8>
    1026:	f2 ff 25 63 2f 00 00 	bnd jmp QWORD PTR [rip+0x2f63]        # 3f90 <_GLOBAL_OFFSET_TABLE_+0x10>
    102d:	0f 1f 00             	nop    DWORD PTR [rax]
    1030:	f3 0f 1e fa          	endbr64 
    1034:	68 00 00 00 00       	push   0x0
    1039:	f2 e9 e1 ff ff ff    	bnd jmp 1020 <.plt>
    103f:	90                   	nop
    1040:	f3 0f 1e fa          	endbr64 
    1044:	68 01 00 00 00       	push   0x1
    1049:	f2 e9 d1 ff ff ff    	bnd jmp 1020 <.plt>
    104f:	90                   	nop
    1050:	f3 0f 1e fa          	endbr64 
    1054:	68 02 00 00 00       	push   0x2
    1059:	f2 e9 c1 ff ff ff    	bnd jmp 1020 <.plt>
    105f:	90                   	nop
    1060:	f3 0f 1e fa          	endbr64 
    1064:	68 03 00 00 00       	push   0x3
    1069:	f2 e9 b1 ff ff ff    	bnd jmp 1020 <.plt>
    106f:	90                   	nop
    1070:	f3 0f 1e fa          	endbr64 
    1074:	68 04 00 00 00       	push   0x4
    1079:	f2 e9 a1 ff ff ff    	bnd jmp 1020 <.plt>
    107f:	90                   	nop
    1080:	f3 0f 1e fa          	endbr64 
    1084:	68 05 00 00 00       	push   0x5
    1089:	f2 e9 91 ff ff ff    	bnd jmp 1020 <.plt>
    108f:	90                   	nop
    1090:	f3 0f 1e fa          	endbr64 
    1094:	68 06 00 00 00       	push   0x6
    1099:	f2 e9 81 ff ff ff    	bnd jmp 1020 <.plt>
    109f:	90                   	nop
    10a0:	f3 0f 1e fa          	endbr64 
    10a4:	68 07 00 00 00       	push   0x7
    10a9:	f2 e9 71 ff ff ff    	bnd jmp 1020 <.plt>
    10af:	90                   	nop

Disassembly of section .plt.got:

00000000000010b0 <__cxa_finalize@plt>:
    10b0:	f3 0f 1e fa          	endbr64 
    10b4:	f2 ff 25 3d 2f 00 00 	bnd jmp QWORD PTR [rip+0x2f3d]        # 3ff8 <__cxa_finalize@GLIBC_2.2.5>
    10bb:	0f 1f 44 00 00       	nop    DWORD PTR [rax+rax*1+0x0]

Disassembly of section .plt.sec:

00000000000010c0 <free@plt>:
    10c0:	f3 0f 1e fa          	endbr64 
    10c4:	f2 ff 25 cd 2e 00 00 	bnd jmp QWORD PTR [rip+0x2ecd]        # 3f98 <free@GLIBC_2.2.5>
    10cb:	0f 1f 44 00 00       	nop    DWORD PTR [rax+rax*1+0x0]

00000000000010d0 <putchar@plt>:
    10d0:	f3 0f 1e fa          	endbr64 
    10d4:	f2 ff 25 c5 2e 00 00 	bnd jmp QWORD PTR [rip+0x2ec5]        # 3fa0 <putchar@GLIBC_2.2.5>
    10db:	0f 1f 44 00 00       	nop    DWORD PTR [rax+rax*1+0x0]

00000000000010e0 <puts@plt>:
    10e0:	f3 0f 1e fa          	endbr64 
    10e4:	f2 ff 25 bd 2e 00 00 	bnd jmp QWORD PTR [rip+0x2ebd]        # 3fa8 <puts@GLIBC_2.2.5>
    10eb:	0f 1f 44 00 00       	nop    DWORD PTR [rax+rax*1+0x0]

00000000000010f0 <write@plt>:
    10f0:	f3 0f 1e fa          	endbr64 
    10f4:	f2 ff 25 b5 2e 00 00 	bnd jmp QWORD PTR [rip+0x2eb5]        # 3fb0 <write@GLIBC_2.2.5>
    10fb:	0f 1f 44 00 00       	nop    DWORD PTR [rax+rax*1+0x0]

0000000000001100 <__stack_chk_fail@plt>:
    1100:	f3 0f 1e fa          	endbr64 
    1104:	f2 ff 25 ad 2e 00 00 	bnd jmp QWORD PTR [rip+0x2ead]        # 3fb8 <__stack_chk_fail@GLIBC_2.4>
    110b:	0f 1f 44 00 00       	nop    DWORD PTR [rax+rax*1+0x0]

0000000000001110 <printf@plt>:
    1110:	f3 0f 1e fa          	endbr64 
    1114:	f2 ff 25 a5 2e 00 00 	bnd jmp QWORD PTR [rip+0x2ea5]        # 3fc0 <printf@GLIBC_2.2.5>
    111b:	0f 1f 44 00 00       	nop    DWORD PTR [rax+rax*1+0x0]

0000000000001120 <malloc@plt>:
    1120:	f3 0f 1e fa          	endbr64 
    1124:	f2 ff 25 9d 2e 00 00 	bnd jmp QWORD PTR [rip+0x2e9d]        # 3fc8 <malloc@GLIBC_2.2.5>
    112b:	0f 1f 44 00 00       	nop    DWORD PTR [rax+rax*1+0x0]

0000000000001130 <strdup@plt>:
    1130:	f3 0f 1e fa          	endbr64 
    1134:	f2 ff 25 95 2e 00 00 	bnd jmp QWORD PTR [rip+0x2e95]        # 3fd0 <strdup@GLIBC_2.2.5>
    113b:	0f 1f 44 00 00       	nop    DWORD PTR [rax+rax*1+0x0]

Disassembly of section .text:

0000000000001140 <_start>:
    1140:	f3 0f 1e fa          	endbr64 
    1144:	31 ed                	xor    ebp,ebp
    1146:	49 89 d1             	mov    r9,rdx
    1149:	5e                   	pop    rsi
    114a:	48 89 e2             	mov    rdx,rsp
    114d:	48 83 e4 f0          	and    rsp,0xfffffffffffffff0
    1151:	50                   	push   rax
    1152:	54                   	push   rsp
    1153:	4c 8d 05 46 03 00 00 	lea    r8,[rip+0x346]        # 14a0 <__libc_csu_fini>
    115a:	48 8d 0d cf 02 00 00 	lea    rcx,[rip+0x2cf]        # 1430 <__libc_csu_init>
    1161:	48 8d 3d c1 00 00 00 	lea    rdi,[rip+0xc1]        # 1229 <main>
    1168:	ff 15 72 2e 00 00    	call   QWORD PTR [rip+0x2e72]        # 3fe0 <__libc_start_main@GLIBC_2.2.5>
    116e:	f4                   	hlt    
    116f:	90                   	nop

0000000000001170 <deregister_tm_clones>:
    1170:	48 8d 3d 99 2e 00 00 	lea    rdi,[rip+0x2e99]        # 4010 <__TMC_END__>
    1177:	48 8d 05 92 2e 00 00 	lea    rax,[rip+0x2e92]        # 4010 <__TMC_END__>
    117e:	48 39 f8             	cmp    rax,rdi
    1181:	74 15                	je     1198 <deregister_tm_clones+0x28>
    1183:	48 8b 05 4e 2e 00 00 	mov    rax,QWORD PTR [rip+0x2e4e]        # 3fd8 <_ITM_deregisterTMCloneTable>
    118a:	48 85 c0             	test   rax,rax
    118d:	74 09                	je     1198 <deregister_tm_clones+0x28>
    118f:	ff e0                	jmp    rax
    1191:	0f 1f 80 00 00 00 00 	nop    DWORD PTR [rax+0x0]
    1198:	c3                   	ret    
    1199:	0f 1f 80 00 00 00 00 	nop    DWORD PTR [rax+0x0]

00000000000011a0 <register_tm_clones>:
    11a0:	48 8d 3d 69 2e 00 00 	lea    rdi,[rip+0x2e69]        # 4010 <__TMC_END__>
    11a7:	48 8d 35 62 2e 00 00 	lea    rsi,[rip+0x2e62]        # 4010 <__TMC_END__>
    11ae:	48 29 fe             	sub    rsi,rdi
    11b1:	48 89 f0             	mov    rax,rsi
    11b4:	48 c1 ee 3f          	shr    rsi,0x3f
    11b8:	48 c1 f8 03          	sar    rax,0x3
    11bc:	48 01 c6             	add    rsi,rax
    11bf:	48 d1 fe             	sar    rsi,1
    11c2:	74 14                	je     11d8 <register_tm_clones+0x38>
    11c4:	48 8b 05 25 2e 00 00 	mov    rax,QWORD PTR [rip+0x2e25]        # 3ff0 <_ITM_registerTMCloneTable>
    11cb:	48 85 c0             	test   rax,rax
    11ce:	74 08                	je     11d8 <register_tm_clones+0x38>
    11d0:	ff e0                	jmp    rax
    11d2:	66 0f 1f 44 00 00    	nop    WORD PTR [rax+rax*1+0x0]
    11d8:	c3                   	ret    
    11d9:	0f 1f 80 00 00 00 00 	nop    DWORD PTR [rax+0x0]

00000000000011e0 <__do_global_dtors_aux>:
    11e0:	f3 0f 1e fa          	endbr64 
    11e4:	80 3d 25 2e 00 00 00 	cmp    BYTE PTR [rip+0x2e25],0x0        # 4010 <__TMC_END__>
    11eb:	75 2b                	jne    1218 <__do_global_dtors_aux+0x38>
    11ed:	55                   	push   rbp
    11ee:	48 83 3d 02 2e 00 00 	cmp    QWORD PTR [rip+0x2e02],0x0        # 3ff8 <__cxa_finalize@GLIBC_2.2.5>
    11f5:	00 
    11f6:	48 89 e5             	mov    rbp,rsp
    11f9:	74 0c                	je     1207 <__do_global_dtors_aux+0x27>
    11fb:	48 8b 3d 06 2e 00 00 	mov    rdi,QWORD PTR [rip+0x2e06]        # 4008 <__dso_handle>
    1202:	e8 a9 fe ff ff       	call   10b0 <__cxa_finalize@plt>
    1207:	e8 64 ff ff ff       	call   1170 <deregister_tm_clones>
    120c:	c6 05 fd 2d 00 00 01 	mov    BYTE PTR [rip+0x2dfd],0x1        # 4010 <__TMC_END__>
    1213:	5d                   	pop    rbp
    1214:	c3                   	ret    
    1215:	0f 1f 00             	nop    DWORD PTR [rax]
    1218:	c3                   	ret    
    1219:	0f 1f 80 00 00 00 00 	nop    DWORD PTR [rax+0x0]

0000000000001220 <frame_dummy>:
    1220:	f3 0f 1e fa          	endbr64 
    1224:	e9 77 ff ff ff       	jmp    11a0 <register_tm_clones>

0000000000001229 <main>:
    1229:	f3 0f 1e fa          	endbr64 
    122d:	55                   	push   rbp
    122e:	48 89 e5             	mov    rbp,rsp
    1231:	48 83 ec 40          	sub    rsp,0x40
    1235:	64 48 8b 04 25 28 00 	mov    rax,QWORD PTR fs:0x28
    123c:	00 00 
    123e:	48 89 45 f8          	mov    QWORD PTR [rbp-0x8],rax
    1242:	31 c0                	xor    eax,eax
    1244:	48 8d 05 b9 0d 00 00 	lea    rax,[rip+0xdb9]        # 2004 <_IO_stdin_used+0x4>
    124b:	48 89 45 e0          	mov    QWORD PTR [rbp-0x20],rax
    124f:	c7 45 e8 05 00 00 00 	mov    DWORD PTR [rbp-0x18],0x5
    1256:	48 c7 45 f0 00 00 00 	mov    QWORD PTR [rbp-0x10],0x0
    125d:	00 
    125e:	48 8d 45 e0          	lea    rax,[rbp-0x20]
    1262:	48 89 45 c8          	mov    QWORD PTR [rbp-0x38],rax
    1266:	bf 18 00 00 00       	mov    edi,0x18
    126b:	e8 b0 fe ff ff       	call   1120 <malloc@plt>
    1270:	48 89 45 d0          	mov    QWORD PTR [rbp-0x30],rax
    1274:	48 83 7d d0 00       	cmp    QWORD PTR [rbp-0x30],0x0
    1279:	75 16                	jne    1291 <main+0x68>
    127b:	48 8d 3d 88 0d 00 00 	lea    rdi,[rip+0xd88]        # 200a <_IO_stdin_used+0xa>
    1282:	e8 59 fe ff ff       	call   10e0 <puts@plt>
    1287:	b8 01 00 00 00       	mov    eax,0x1
    128c:	e9 ba 00 00 00       	jmp    134b <main+0x122>
    1291:	48 8d 3d 78 0d 00 00 	lea    rdi,[rip+0xd78]        # 2010 <_IO_stdin_used+0x10>
    1298:	e8 93 fe ff ff       	call   1130 <strdup@plt>
    129d:	48 89 c2             	mov    rdx,rax
    12a0:	48 8b 45 d0          	mov    rax,QWORD PTR [rbp-0x30]
    12a4:	48 89 10             	mov    QWORD PTR [rax],rdx
    12a7:	48 8b 45 d0          	mov    rax,QWORD PTR [rbp-0x30]
    12ab:	c7 40 08 05 00 00 00 	mov    DWORD PTR [rax+0x8],0x5
    12b2:	48 8b 45 d0          	mov    rax,QWORD PTR [rbp-0x30]
    12b6:	48 8b 55 c8          	mov    rdx,QWORD PTR [rbp-0x38]
    12ba:	48 89 50 10          	mov    QWORD PTR [rax+0x10],rdx
    12be:	48 8b 45 d0          	mov    rax,QWORD PTR [rbp-0x30]
    12c2:	48 89 45 c8          	mov    QWORD PTR [rbp-0x38],rax
    12c6:	48 8b 45 c8          	mov    rax,QWORD PTR [rbp-0x38]
    12ca:	48 89 c7             	mov    rdi,rax
    12cd:	e8 8f 00 00 00       	call   1361 <print_list>
    12d2:	48 89 45 d8          	mov    QWORD PTR [rbp-0x28],rax
    12d6:	48 8b 45 d8          	mov    rax,QWORD PTR [rbp-0x28]
    12da:	48 89 c6             	mov    rsi,rax
    12dd:	48 8d 3d 32 0d 00 00 	lea    rdi,[rip+0xd32]        # 2016 <_IO_stdin_used+0x16>
    12e4:	b8 00 00 00 00       	mov    eax,0x0
    12e9:	e8 22 fe ff ff       	call   1110 <printf@plt>
    12ee:	bf 0a 00 00 00       	mov    edi,0xa
    12f3:	e8 d8 fd ff ff       	call   10d0 <putchar@plt>
    12f8:	48 8b 45 d0          	mov    rax,QWORD PTR [rbp-0x30]
    12fc:	48 8b 00             	mov    rax,QWORD PTR [rax]
    12ff:	48 89 c7             	mov    rdi,rax
    1302:	e8 b9 fd ff ff       	call   10c0 <free@plt>
    1307:	48 8b 45 d0          	mov    rax,QWORD PTR [rbp-0x30]
    130b:	48 c7 00 00 00 00 00 	mov    QWORD PTR [rax],0x0
    1312:	48 8b 45 c8          	mov    rax,QWORD PTR [rbp-0x38]
    1316:	48 89 c7             	mov    rdi,rax
    1319:	e8 43 00 00 00       	call   1361 <print_list>
    131e:	48 89 45 d8          	mov    QWORD PTR [rbp-0x28],rax
    1322:	48 8b 45 d8          	mov    rax,QWORD PTR [rbp-0x28]
    1326:	48 89 c6             	mov    rsi,rax
    1329:	48 8d 3d e6 0c 00 00 	lea    rdi,[rip+0xce6]        # 2016 <_IO_stdin_used+0x16>
    1330:	b8 00 00 00 00       	mov    eax,0x0
    1335:	e8 d6 fd ff ff       	call   1110 <printf@plt>
    133a:	48 8b 45 d0          	mov    rax,QWORD PTR [rbp-0x30]
    133e:	48 89 c7             	mov    rdi,rax
    1341:	e8 7a fd ff ff       	call   10c0 <free@plt>
    1346:	b8 00 00 00 00       	mov    eax,0x0
    134b:	48 8b 4d f8          	mov    rcx,QWORD PTR [rbp-0x8]
    134f:	64 48 33 0c 25 28 00 	xor    rcx,QWORD PTR fs:0x28
    1356:	00 00 
    1358:	74 05                	je     135f <main+0x136>
    135a:	e8 a1 fd ff ff       	call   1100 <__stack_chk_fail@plt>
    135f:	c9                   	leave  
    1360:	c3                   	ret    

0000000000001361 <print_list>:
    1361:	f3 0f 1e fa          	endbr64 
    1365:	55                   	push   rbp
    1366:	48 89 e5             	mov    rbp,rsp
    1369:	48 83 ec 30          	sub    rsp,0x30
    136d:	48 89 7d d8          	mov    QWORD PTR [rbp-0x28],rdi
    1371:	48 c7 45 e8 00 00 00 	mov    QWORD PTR [rbp-0x18],0x0
    1378:	00 
    1379:	48 83 7d d8 00       	cmp    QWORD PTR [rbp-0x28],0x0
    137e:	74 7c                	je     13fc <print_list+0x9b>
    1380:	48 8b 45 d8          	mov    rax,QWORD PTR [rbp-0x28]
    1384:	48 89 45 f0          	mov    QWORD PTR [rbp-0x10],rax
    1388:	eb 6b                	jmp    13f5 <print_list+0x94>
    138a:	48 8b 45 f0          	mov    rax,QWORD PTR [rbp-0x10]
    138e:	48 8b 00             	mov    rax,QWORD PTR [rax]
    1391:	48 89 45 f8          	mov    QWORD PTR [rbp-0x8],rax
    1395:	c7 45 e4 00 00 00 00 	mov    DWORD PTR [rbp-0x1c],0x0
    139c:	48 83 7d f8 00       	cmp    QWORD PTR [rbp-0x8],0x0
    13a1:	75 1d                	jne    13c0 <print_list+0x5f>
    13a3:	8b 45 e4             	mov    eax,DWORD PTR [rbp-0x1c]
    13a6:	89 c6                	mov    esi,eax
    13a8:	48 8d 3d 78 0c 00 00 	lea    rdi,[rip+0xc78]        # 2027 <_IO_stdin_used+0x27>
    13af:	b8 00 00 00 00       	mov    eax,0x0
    13b4:	e8 57 fd ff ff       	call   1110 <printf@plt>
    13b9:	48 83 45 e8 01       	add    QWORD PTR [rbp-0x18],0x1
    13be:	eb 29                	jmp    13e9 <print_list+0x88>
    13c0:	48 8b 45 f0          	mov    rax,QWORD PTR [rbp-0x10]
    13c4:	8b 40 08             	mov    eax,DWORD PTR [rax+0x8]
    13c7:	89 45 e4             	mov    DWORD PTR [rbp-0x1c],eax
    13ca:	48 8b 55 f8          	mov    rdx,QWORD PTR [rbp-0x8]
    13ce:	8b 45 e4             	mov    eax,DWORD PTR [rbp-0x1c]
    13d1:	89 c6                	mov    esi,eax
    13d3:	48 8d 3d 59 0c 00 00 	lea    rdi,[rip+0xc59]        # 2033 <_IO_stdin_used+0x33>
    13da:	b8 00 00 00 00       	mov    eax,0x0
    13df:	e8 2c fd ff ff       	call   1110 <printf@plt>
    13e4:	48 83 45 e8 01       	add    QWORD PTR [rbp-0x18],0x1
    13e9:	48 8b 45 f0          	mov    rax,QWORD PTR [rbp-0x10]
    13ed:	48 8b 40 10          	mov    rax,QWORD PTR [rax+0x10]
    13f1:	48 89 45 f0          	mov    QWORD PTR [rbp-0x10],rax
    13f5:	48 83 7d f0 00       	cmp    QWORD PTR [rbp-0x10],0x0
    13fa:	75 8e                	jne    138a <print_list+0x29>
    13fc:	48 8b 45 e8          	mov    rax,QWORD PTR [rbp-0x18]
    1400:	c9                   	leave  
    1401:	c3                   	ret    

0000000000001402 <_putchar>:
    1402:	f3 0f 1e fa          	endbr64 
    1406:	55                   	push   rbp
    1407:	48 89 e5             	mov    rbp,rsp
    140a:	48 83 ec 10          	sub    rsp,0x10
    140e:	89 f8                	mov    eax,edi
    1410:	88 45 fc             	mov    BYTE PTR [rbp-0x4],al
    1413:	48 8d 45 fc          	lea    rax,[rbp-0x4]
    1417:	ba 01 00 00 00       	mov    edx,0x1
    141c:	48 89 c6             	mov    rsi,rax
    141f:	bf 01 00 00 00       	mov    edi,0x1
    1424:	e8 c7 fc ff ff       	call   10f0 <write@plt>
    1429:	c9                   	leave  
    142a:	c3                   	ret    
    142b:	0f 1f 44 00 00       	nop    DWORD PTR [rax+rax*1+0x0]

0000000000001430 <__libc_csu_init>:
    1430:	f3 0f 1e fa          	endbr64 
    1434:	41 57                	push   r15
    1436:	4c 8d 3d 43 29 00 00 	lea    r15,[rip+0x2943]        # 3d80 <__frame_dummy_init_array_entry>
    143d:	41 56                	push   r14
    143f:	49 89 d6             	mov    r14,rdx
    1442:	41 55                	push   r13
    1444:	49 89 f5             	mov    r13,rsi
    1447:	41 54                	push   r12
    1449:	41 89 fc             	mov    r12d,edi
    144c:	55                   	push   rbp
    144d:	48 8d 2d 34 29 00 00 	lea    rbp,[rip+0x2934]        # 3d88 <__do_global_dtors_aux_fini_array_entry>
    1454:	53                   	push   rbx
    1455:	4c 29 fd             	sub    rbp,r15
    1458:	48 83 ec 08          	sub    rsp,0x8
    145c:	e8 9f fb ff ff       	call   1000 <_init>
    1461:	48 c1 fd 03          	sar    rbp,0x3
    1465:	74 1f                	je     1486 <__libc_csu_init+0x56>
    1467:	31 db                	xor    ebx,ebx
    1469:	0f 1f 80 00 00 00 00 	nop    DWORD PTR [rax+0x0]
    1470:	4c 89 f2             	mov    rdx,r14
    1473:	4c 89 ee             	mov    rsi,r13
    1476:	44 89 e7             	mov    edi,r12d
    1479:	41 ff 14 df          	call   QWORD PTR [r15+rbx*8]
    147d:	48 83 c3 01          	add    rbx,0x1
    1481:	48 39 dd             	cmp    rbp,rbx
    1484:	75 ea                	jne    1470 <__libc_csu_init+0x40>
    1486:	48 83 c4 08          	add    rsp,0x8
    148a:	5b                   	pop    rbx
    148b:	5d                   	pop    rbp
    148c:	41 5c                	pop    r12
    148e:	41 5d                	pop    r13
    1490:	41 5e                	pop    r14
    1492:	41 5f                	pop    r15
    1494:	c3                   	ret    
    1495:	66 66 2e 0f 1f 84 00 	data16 nop WORD PTR cs:[rax+rax*1+0x0]
    149c:	00 00 00 00 

00000000000014a0 <__libc_csu_fini>:
    14a0:	f3 0f 1e fa          	endbr64 
    14a4:	c3                   	ret    

Disassembly of section .fini:

00000000000014a8 <_fini>:
    14a8:	f3 0f 1e fa          	endbr64 
    14ac:	48 83 ec 08          	sub    rsp,0x8
    14b0:	48 83 c4 08          	add    rsp,0x8
    14b4:	c3                   	ret    
